#include <math.h>
#include <stdio.h>
#include <stdlib.h>
#include <string.h>

int main(){
	int row,col,Row,Col,sum;
	int array[100][100];
	scanf("%d%d",&row,&col);
	sum=row*col;
	//sum??
	for(Row=0;Row<row;Row++){
		for(Col=0;Col<col;Col++){
			scanf("%d",&array[Row][Col]);
		}
	}
	//??????
	Row=0;Col=-1;
	int r,c;
	row--;
	while(1){
		for(c=0;c<col;c++){
			Col++;
			printf("%d\n",array[Row][Col]);
			sum--;
		}
		if(sum==0)
			break;
		col--;
		//??
		for(r=0;r<row;r++){
			Row++;
			printf("%d\n",array[Row][Col]);
			sum--;
		}
		if(sum==0)
			break;
		row--;
		//??
		for(c=0;c<col;c++){
			Col--;
			printf("%d\n",array[Row][Col]);
			sum--;
		}
		if(sum==0)
			break;
		col--;
		//??
		for(r=0;r<row;r++){
			Row--;
			printf("%d\n",array[Row][Col]);
			sum--;
		}
		if(sum==0)
			break;
		row--;
		//??
	}
	return 0;
}
